target datalayout = "e-m:e-p270:32:32-p271:32:32-p272:64:64-i64:64-i128:128-f80:128-n8:16:32:64-S128"
target triple = "x86_64-pc-linux-gnu"

%"class.google::protobuf::internal::LogMessage" = type { i32, ptr, i32, %"class.std::__cxx11::basic_string" }
%"class.std::__cxx11::basic_string" = type { %"struct.std::__cxx11::basic_string<char>::_Alloc_hider", i64, %union.anon }
%"struct.std::__cxx11::basic_string<char>::_Alloc_hider" = type { ptr }
%union.anon = type { i64, [8 x i8] }

@.str.22 = private unnamed_addr constant [5 x i8] c"%llu\00", align 1

; Function Attrs: mustprogress uwtable
define noundef nonnull align 8 dereferenceable(56) ptr @_ZN6google8protobuf8internal10LogMessagelsEy(ptr noundef nonnull align 8 dereferenceable(56) %0, i64 noundef %1) #4 align 2 {
  %3 = alloca ptr, align 8
  %4 = alloca i64, align 8
  %5 = alloca [128 x i8], align 16
  store ptr %0, ptr %3, align 8
  store i64 %1, ptr %4, align 8
  %6 = load ptr, ptr %3, align 8
  %7 = getelementptr inbounds [128 x i8], ptr %5, i64 0, i64 0
  %8 = load i64, ptr %4, align 8
  %9 = call i32 (ptr, i64, ptr, ...) @snprintf(ptr noundef %7, i64 noundef 128, ptr noundef @.str.22, i64 noundef %8) #3
  %10 = getelementptr inbounds [128 x i8], ptr %5, i64 0, i64 127
  store i8 0, ptr %10, align 1
  %11 = getelementptr inbounds [128 x i8], ptr %5, i64 0, i64 0
  %12 = getelementptr inbounds %"class.google::protobuf::internal::LogMessage", ptr %6, i32 0, i32 3
  %13 = call noundef nonnull align 8 dereferenceable(32) ptr @_ZNSt7__cxx1112basic_stringIcSt11char_traitsIcESaIcEEpLEPKc(ptr noundef nonnull align 8 dereferenceable(32) %12, ptr noundef %11)
  ret ptr %6
}